(dp0
S'Tysons West Transit Center'
p1
(lp2
F38.932636
aF-77.231825
asS'61st St & Banks Pl NE'
p3
(lp4
F38.891805
aF-76.913563
asS'12th & Newton St NE'
p5
(lp6
F38.933668
aF-76.991016
asS'Sunset Hills Rd & Isaac Newton Square'
p7
(lp8
F38.951443
aF-77.340377
asS'Wilson Blvd & Franklin Rd'
p9
(lp10
F38.8904
aF-77.0889
asS'18th & Eads St.'
p11
(lp12
F38.85725
aF-77.05332
asS'Medical Center Metro '
p13
(lp14
F38.999378
aF-77.097882
asS'Potomac & Swann Ave'
p15
(lp16
F38.829545
aF-77.047844
asS'18th St & Rhode Island Ave NE'
p17
(lp18
F38.927095
aF-76.978924
asS'10th & Florida Ave NW'
p19
(lp20
F38.920387
aF-77.025672
asS'Silver Spring Metro/Colesville Rd & Wayne Ave'
p21
(lp22
F38.99521
aF-77.02918
asS'Eisenhower Ave & Mill Race Ln'
p23
(lp24
F38.801111
aF-77.068952
asS'10th & Monroe St NE'
p25
(lp26
F38.932514
aF-76.992889
asS'S Stafford & 34th St S'
p27
(lp28
F38.834108
aF-77.087323
asS'20th & Crystal Dr'
p29
(lp30
F38.856425
aF-77.049232
asS'Carroll & Ethan Allen Ave'
p31
(lp32
F38.977933
aF-77.006472
asS'15th & F St NE'
p33
(lp34
F38.897195
aF-76.983575
asS'Taft St & E Gude Dr'
p35
(lp36
F39.094103
aF-77.132954
asS'Connecticut & Nebraska Ave NW'
p37
(lp38
F38.955016
aF-77.069956
asS'Van Ness Metro / UDC'
p39
(lp40
F38.944551
aF-77.063896
asS'21st & I St NW'
p41
(lp42
F38.9008
aF-77.047
asS"10th St & L'Enfant Plaza SW"
p43
(lp44
F38.884377
aF-77.025791
asS'Bladensburg Rd & Benning Rd NE'
p45
(lp46
F38.900413
aF-76.982872
asS'Tenleytown / Wisconsin Ave & Albemarle St NW'
p47
(lp48
F38.947607
aF-77.079382
asS'Veterans Pl & Pershing Dr '
p49
(lp50
F38.997445
aF-77.023894
asS'US Dept of State / Virginia Ave & 21st St NW'
p51
(lp52
F38.894919
aF-77.046587
asS'4th & Kennedy St NW'
p53
(lp54
F38.95647211778466
aF-77.01804399490356
asS'Potomac Ave & 35th St S'
p55
(lp56
F38.844015
aF-77.050537
asS'37th & O St NW / Georgetown University'
p57
(lp58
F38.90774
aF-77.071652
asS'S Glebe & Potomac Ave'
p59
(lp60
F38.8426
aF-77.0502
asS'Washington Blvd & 10th St N'
p61
(lp62
F38.884734
aF-77.093485
asS'26th & S Clark St'
p63
(lp64
F38.850688
aF-77.05152
asS'Amherst Ave & Prichard Rd'
p65
(lp66
F39.035965
aF-77.048395
asS'19th St & Constitution Ave NW'
p67
(lp68
F38.8923
aF-77.0436
asS'Benning Branch Library'
p69
(lp70
F38.894
aF-76.947974
asS'Columbia Pike & S Orme St'
p71
(lp72
F38.867262
aF-77.072315
asS'Arlington Blvd & N Queen St'
p73
(lp74
F38.889365
aF-77.077294
asS'Reston Regional Library'
p75
(lp76
F38.962095
aF-77.358815
asS'Barcroft Community Center'
p77
(lp78
F38.85033657788445
aF-77.1009886264801
asS'Mount Vernon Ave & E Nelson Ave'
p79
(lp80
F38.820064
aF-77.057619
asS'Market Square / King St & Royal St'
p81
(lp82
F38.804718
aF-77.043363
asS'Gallaudet / 8th St & Florida Ave NE'
p83
(lp84
F38.90509
aF-76.9941
asS'Rosslyn Metro / Wilson Blvd & Ft Myer Dr'
p85
(lp86
F38.8946
aF-77.072305
asS'Lee Hwy & N Kirkwood Rd'
p87
(lp88
F38.895377
aF-77.09713
asS'19th & E Street NW'
p89
(lp90
F38.8952
aF-77.0436
asS'2nd St & Massachusetts Ave NE'
p91
(lp92
F38.894972
aF-77.003135
asS'7th & E St SW'
p93
(lp94
F38.88345
aF-77.021741
asS'Nannie Helen Burroughs Ave & 49th St NE'
p95
(lp96
F38.898536
aF-76.931862
asS'Offutt Ln & Chevy Chase Dr'
p97
(lp98
F38.977093
aF-77.094589
asS'Anacostia Ave & Benning Rd NE / River Terrace '
p99
(lp100
F38.896544
aF-76.96012
asS'Potomac Ave & 8th St SE'
p101
(lp102
F38.876737
aF-76.994468
asS'11th & H St NE'
p103
(lp104
F38.899983
aF-76.991383
asS'S Kenmore & 24th St S'
p105
(lp106
F38.848454
aF-77.084918
asS'Jones Branch & Westbranch Dr'
p107
(lp108
F38.931911
aF-77.219261
asS'14th St Heights / 14th & Crittenden St NW'
p109
(lp110
F38.947774
aF-77.032818
asS'Montgomery College/W Campus Dr & Mannakee St'
p111
(lp112
F39.095661
aF-77.159048
asS'New Jersey Ave & N St NW/Dunbar HS'
p113
(lp114
F38.90706
aF-77.015231
asS'N Quincy St & Glebe Rd'
p115
(lp116
F38.876393
aF-77.107735
asS'20th & E St NW'
p117
(lp118
F38.8963
aF-77.045
asS'20th & O St NW / Dupont South'
p119
(lp120
F38.908905
aF-77.04478
asS'12th & Irving St NE'
p121
(lp122
F38.928644
aF-76.990955
asS'Mount Vernon Ave & Four Mile Run Park'
p123
(lp124
F38.843422
aF-77.064016
asS'Monroe Ave & Leslie Ave'
p125
(lp126
F38.820932
aF-77.053096
asS'Franklin & S Washington St'
p127
(lp128
F38.798133
aF-77.0487
asS'Carlin Springs Rd & N Thomas St'
p129
(lp130
F38.876695
aF-77.112982
asS'15th & East Capitol St NE'
p131
(lp132
F38.889908
aF-76.983326
asS'8th & F St NE'
p133
(lp134
F38.897274
aF-76.994749
asS'39th & Calvert St NW / Stoddert'
p135
(lp136
F38.922649
aF-77.077271
asS'North Shore Dr & Village Rd'
p137
(lp138
F38.970412
aF-77.340787
asS'18th & C St NW'
p139
(lp140
F38.893511
aF-77.041544
asS'Connecticut Ave & Tilden St NW'
p141
(lp142
F38.941154
aF-77.062036
asS'East Falls Church Metro/Sycamore St & 19th St N'
p143
(lp144
F38.884859
aF-77.155988
asS'N Lynn St & Fairfax Dr'
p145
(lp146
F38.89386
aF-77.070862
asS'South Capitol & Atlantic St SW'
p147
(lp148
F38.831516
aF-77.008133
asS'Key Blvd & N Quinn St'
p149
(lp150
F38.896015
aF-77.078107
asS'19th St & Pennsylvania Ave NW'
p151
(lp152
F38.9003
aF-77.0429
asS'King Farm Blvd & Pleasant Dr'
p153
(lp154
F39.114688
aF-77.171487
asS'Georgia Ave & Emerson St NW'
p155
(lp156
F38.949662
aF-77.027333
asS'18th & R St NW'
p157
(lp158
F38.912648
aF-77.041834
asS'Washington Blvd & N Frederick St'
p159
(lp160
F38.884829
aF-77.127671
asS'14th & G St NW'
p161
(lp162
F38.898069
aF-77.031823
asS'16th & R St NW'
p163
(lp164
F38.912652
aF-77.036278
asS'New Dominion Pkwy & Fountain Dr'
p165
(lp166
F38.960574
aF-77.356324
asS'28th St S & S Meade St'
p167
(lp168
F38.846222
aF-77.069275
asS'Shady Grove Metro West'
p169
(lp170
F39.119765
aF-77.166093
asS'Washington Adventist U / Flower Ave & Division St'
p171
(lp172
F38.986743
aF-77.000035
asS'15th & N Scott St'
p173
(lp174
F38.89054
aF-77.08095
asS'3rd & Tingey St SE'
p175
(lp176
F38.87501
aF-77.0024
asS'Temporary Rd & Old Reston Ave'
p177
(lp178
F38.960084
aF-77.353414
asS'9th & Upshur St NW'
p179
(lp180
F38.9418
aF-77.0251
asS'S Joyce & 16th St S'
p181
(lp182
F38.859254
aF-77.063275
asS'22nd & I St NW / Foggy Bottom'
p183
(lp184
F38.90088
aF-77.048911
asS'3rd & Elm St NW'
p185
(lp186
F38.917622
aF-77.01597
asS'Crabbs Branch Way & Redland Rd'
p187
(lp188
F39.120045
aF-77.156985
asS'Friendship Hts Metro/Wisconsin Ave & Wisconsin Cir'
p189
(lp190
F38.961763
aF-77.085998
asS'Walter Reed Community Center / Walter Reed Dr & 16th St S'
p191
(lp192
F38.857803
aF-77.086733
asS'Lamont & Mt Pleasant NW'
p193
(lp194
F38.9319
aF-77.0388
asS'Solutions & Greensboro Dr'
p195
(lp196
F38.923116
aF-77.232108
asS'Constitution Ave & 2nd St NW/DOL'
p197
(lp198
F38.892275
aF-77.013917
asS'Hains Point/Buckeye & Ohio Dr SW'
p199
(lp200
F38.878433
aF-77.03023
asS'17th St & Independence Ave SW'
p201
(lp202
F38.888097
aF-77.038325
asS'18th St & Wyoming Ave NW'
p203
(lp204
F38.918809
aF-77.041571
asS'15th & Euclid St  NW'
p205
(lp206
F38.92333
aF-77.0352
asS'Monroe St & Monroe Pl'
p207
(lp208
F39.083673
aF-77.149162
asS'15th St & Massachusetts Ave SE'
p209
(lp210
F38.88732
aF-76.983569
asS'1st & Washington Hospital Center NW'
p211
(lp212
F38.928743
aF-77.012457
asS'N Pershing Dr & Wayne St'
p213
(lp214
F38.880705
aF-77.08596
asS'16th & K St NW'
p215
(lp216
F38.90268
aF-77.035737
asS'Sunset Hills Rd & Discovery Square'
p217
(lp218
F38.95534
aF-77.357611
asS'Nannie Helen Burroughs & Minnesota Ave NE'
p219
(lp220
F38.901385
aF-76.941877
asS'8th & D St NW'
p221
(lp222
F38.894851
aF-77.02324
asS'19th & L St NW'
p223
(lp224
F38.903407
aF-77.043648
asS'7th & T St NW'
p225
(lp226
F38.9155
aF-77.0222
asS'3rd & D St SE'
p227
(lp228
F38.8851
aF-77.0023
asS'6th & K St NE'
p229
(lp230
F38.9028773031307
aF-76.99840486049652
asS'12th & L St NW'
p231
(lp232
F38.903819
aF-77.0284
asS'22nd & P ST NW'
p233
(lp234
F38.909394
aF-77.048728
asS'23rd & E St NW '
p235
(lp236
F38.896104
aF-77.049882
asS'Kennebec St & 11th St N'
p237
(lp238
F38.880992
aF-77.135271
asS'Woodmont Ave & Strathmore St'
p239
(lp240
F38.979875
aF-77.093522
asS'S Walter Reed Dr & 8th St S'
p241
(lp242
F38.86612
aF-77.08787
asS'Wilson Blvd & N Edgewood St'
p243
(lp244
F38.889
aF-77.0925
asS'3rd & Underwood St NW'
p245
(lp246
F38.968834
aF-77.016258
asS'Ballston Metro / N Stuart & 9th St N'
p247
(lp248
F38.881044
aF-77.111768
asS'N Veitch  & 20th St N'
p249
(lp250
F38.896923
aF-77.086502
asS'Commerce St & Fayette St'
p251
(lp252
F38.805648
aF-77.05293
asS'15th & L St NW'
p253
(lp254
F38.90366
aF-77.034846
asS'11th & M St NW'
p255
(lp256
F38.905607
aF-77.027137
asS'Maryland Ave & E St NE'
p257
(lp258
F38.896134
aF-76.9929
asS'Thomas Circle'
p259
(lp260
F38.9059
aF-77.0325
asS'Philadelphia & Maple Ave'
p261
(lp262
F38.98128
aF-77.011336
asS'4th & East Capitol St NE'
p263
(lp264
F38.889955
aF-77.000349
asS'USDA / 12th & Independence Ave SW'
p265
(lp266
F38.887237
aF-77.028226
asS'Fleet St & Ritchie Pkwy'
p267
(lp268
F39.076331
aF-77.141378
asS'Good Hope & Naylor Rd SE'
p269
(lp270
F38.8601
aF-76.9672
asS'Shady Grove Metro East'
p271
(lp272
F39.121327
aF-77.164969
asS'3rd & G St SE'
p273
(lp274
F38.881185
aF-77.001828
asS'Georgia & Missouri Ave NW'
p275
(lp276
F38.961339
aF-77.027855
asS'TJ Cmty Ctr / 2nd St & S Old Glebe Rd'
p277
(lp278
F38.869418
aF-77.095596
asS'Ohio Dr & West Basin Dr SW / MLK & FDR Memorials'
p279
(lp280
F38.88412
aF-77.04657
asS'17th & G St NW'
p281
(lp282
F38.89841
aF-77.039624
asS'14th & Belmont St NW'
p283
(lp284
F38.921074
aF-77.031887
asS'Sunset Hills & Old Reston Ave'
p285
(lp286
F38.955079
aF-77.351649
asS'Harvard St & Adams Mill Rd NW'
p287
(lp288
F38.927872
aF-77.043358
asS'Fairfax Dr & Wilson Blvd'
p289
(lp290
F38.885801
aF-77.097745
asS'Randle Circle & Minnesota Ave SE'
p291
(lp292
F38.878
aF-76.9607
asS'Fenton St & New York Ave '
p293
(lp294
F38.985404
aF-77.023082
asS'21st St & Constitution Ave NW'
p295
(lp296
F38.892459
aF-77.046567
asS'10th & G St NW'
p297
(lp298
F38.89824328774852
aF-77.02623546123505
asS'25th St & Pennsylvania Ave NW'
p299
(lp300
F38.903827
aF-77.053485
asS'Spring Hill Metro'
p301
(lp302
F38.929261
aF-77.240654
asS'5th & K St NW'
p303
(lp304
F38.90304
aF-77.019027
asS'Good Hope Rd & 14th St SE'
p305
(lp306
F38.866611
aF-76.985238
asS'Deanwood Rec Center'
p307
(lp308
F38.908473
aF-76.933099
asS'17th & Rhode Island Ave NW'
p309
(lp310
F38.905995699991145
aF-77.03980207443237
asS'Kennedy Center'
p311
(lp312
F38.897293
aF-77.05557
asS'N Veitch & Key Blvd'
p313
(lp314
F38.893241
aF-77.086045
asS'8th & Eye St SE / Barracks Row'
p315
(lp316
F38.8792
aF-76.9953
asS'Pentagon City Metro / 12th & S Hayes St'
p317
(lp318
F38.862303
aF-77.059936
asS'24th & R St NE / National Arboretum'
p319
(lp320
F38.91263
aF-76.971923
asS'3000 Connecticut Ave NW / National Zoo'
p321
(lp322
F38.930282
aF-77.055599
asS'Eastern Market Metro / Pennsylvania Ave & 7th St SE'
p323
(lp324
F38.884
aF-76.995397
asS'Jefferson Dr & 14th St SW'
p325
(lp326
F38.888553
aF-77.032429
asS'Braddock Rd Metro'
p327
(lp328
F38.814577
aF-77.052808
asS'John McCormack Dr & Michigan Ave NE'
p329
(lp330
F38.9346
aF-76.9955
asS'13th & H St NE'
p331
(lp332
F38.9003
aF-76.9882
asS'Pershing & N George Mason Dr'
p333
(lp334
F38.871822
aF-77.107906
asS'6th & Water St SW / SW Waterfront'
p335
(lp336
F38.87675
aF-77.02127
asS'Columbus Circle / Union Station'
p337
(lp338
F38.89696
aF-77.00493
asS'C & O Canal & Wisconsin Ave NW'
p339
(lp340
F38.90375
aF-77.06269
asS'Convention Center / 7th & M St NW'
p341
(lp342
F38.905737
aF-77.02227
asS'Tysons Corner Station'
p343
(lp344
F38.920939
aF-77.222115
asS'Neal St & Trinidad Ave NE'
p345
(lp346
F38.903732
aF-76.987211
asS'Alabama & MLK Ave SE'
p347
(lp348
F38.843222
aF-76.999388
asS'Division Ave & Foote St NE'
p349
(lp350
F38.897407
aF-76.925907
asS'Fessenden St & Wisconsin Ave NW'
p351
(lp352
F38.954812
aF-77.082426
asS'Pleasant St & MLK Ave SE'
p353
(lp354
F38.863897
aF-76.990037
asS'5th St & Massachusetts Ave NW'
p355
(lp356
F38.90093
aF-77.018677
asS'New Hampshire & Kirklynn Ave'
p357
(lp358
F38.988101
aF-76.988422
asS'24th & N St NW'
p359
(lp360
F38.9066
aF-77.05152
asS'Prince St & Union St'
p361
(lp362
F38.803124
aF-77.040363
asS'Lee Center'
p363
(lp364
F38.797557
aF-77.053766
asS'13th St & Eastern Ave'
p365
(lp366
F38.987
aF-77.029417
asS'14th & D St NW / Ronald Reagan Building'
p367
(lp368
F38.894514
aF-77.031617
asS'Shady Grove Hospital'
p369
(lp370
F39.097636
aF-77.196636
asS'Connecticut Ave & Chevy Chase Lake Dr'
p371
(lp372
F38.994113
aF-77.076986
asS'16th & Harvard St NW'
p373
(lp374
F38.926088
aF-77.036536
asS'1st & M St NE'
p375
(lp376
F38.9057
aF-77.0056
asS'S Four Mile Run Dr & S Shirlington Rd'
p377
(lp378
F38.8444
aF-77.085931
asS'4th & M St SW'
p379
(lp380
F38.8767
aF-77.0178
asS'Crystal City Metro / 18th & Bell St'
p381
(lp382
F38.85740496261504
aF-77.05113172531128
asS'S Four Mile Run & Walter Reed Dr'
p383
(lp384
F38.84736
aF-77.095431
asS'Spring St & Second Ave'
p385
(lp386
F38.997653
aF-77.034499
asS'Rolfe St & 9th St S'
p387
(lp388
F38.866471
aF-77.076131
asS'Lincoln Park / 13th & East Capitol St NE '
p389
(lp390
F38.890461
aF-76.988355
asS'Iwo Jima Memorial/N Meade & 14th St N'
p391
(lp392
F38.88992
aF-77.071301
asS'12th & Army Navy Dr'
p393
(lp394
F38.8629
aF-77.0528
asS'North Capitol St & G Pl NE'
p395
(lp396
F38.899703
aF-77.008911
asS'14th & Irving St NW'
p397
(lp398
F38.928552
aF-77.032224
asS'Rockville Metro West'
p399
(lp400
F39.084379
aF-77.146866
asS'Commonwealth & E Monroe Ave'
p401
(lp402
F38.82005823354218
aF-77.06282079219818
asS'George Mason Dr & Wilson Blvd'
p403
(lp404
F38.87887
aF-77.1207
asS'Ballenger Ave & Dulaney St'
p405
(lp406
F38.802677
aF-77.063562
asS'18th & Monroe St NE'
p407
(lp408
F38.93293
aF-76.979517
asS'Jefferson Memorial'
p409
(lp410
F38.879819
aF-77.037413
asS'4th & E St SW'
p411
(lp412
F38.88412
aF-77.017445
asS'Wilson Blvd & N Uhle St'
p413
(lp414
F38.891696
aF-77.0846
asS'Needwood Rd & Eagles Head Ct'
p415
(lp416
F39.123513
aF-77.15741
asS'Grandview & Blueridge Ave'
p417
(lp418
F39.043272
aF-77.053085
asS'Amherst Ave & Elkins St'
p419
(lp420
F39.044887
aF-77.047788
asS'California St & Florida Ave NW'
p421
(lp422
F38.917761
aF-77.04062
asS'10th & K St NW'
p423
(lp424
F38.9024
aF-77.02622
asS'17th & K St NW'
p425
(lp426
F38.90276
aF-77.03863
asS'Norfolk Ave & Fairmont St'
p427
(lp428
F38.988562
aF-77.096539
asS'Norfolk & Rugby Ave'
p429
(lp430
F38.990639
aF-77.100239
asS'19th & K St NW'
p431
(lp432
F38.902204
aF-77.04337
asS'Wisconsin Ave & Ingomar St NW'
p433
(lp434
F38.958267
aF-77.084636
asS'Potomac & Pennsylvania Ave SE'
p435
(lp436
F38.8803
aF-76.9862
asS'Florida Ave & R St NW'
p437
(lp438
F38.9126
aF-77.0135
asS'16th & Irving St NW'
p439
(lp440
F38.928893
aF-77.03625
asS'New Jersey Ave & R St NW'
p441
(lp442
F38.912659
aF-77.017669
asS'Mount Vernon Ave & Bruce St'
p443
(lp444
F38.841291
aF-77.063093
asS'Old Georgetown Rd & Southwick St'
p445
(lp446
F38.999634
aF-77.109647
asS'8th & East Capitol St NE'
p447
(lp448
F38.889988
aF-76.995193
asS'Library St & Freedom Dr'
p449
(lp450
F38.959633
aF-77.358741
asS'Potomac Ave & Main Line Blvd'
p451
(lp452
F38.822738
aF-77.049265
asS'King St Metro South'
p453
(lp454
F38.805767
aF-77.06072
asS'15th & W St NW'
p455
(lp456
F38.919086
aF-77.034502
asS'Fairfax Village'
p457
(lp458
F38.86559
aF-76.952103
asS'Mount Vernon Ave & Kennedy St'
p459
(lp460
F38.833077
aF-77.059821
asS'Massachusetts Ave & Dupont Circle NW'
p461
(lp462
F38.9101
aF-77.0444
asS'8th & O St NW'
p463
(lp464
F38.90864
aF-77.02277
asS'Frederick Ave & Horners Ln'
p465
(lp466
F39.094772
aF-77.145213
asS'Potomac Greens Dr & Slaters Ln'
p467
(lp468
F38.82175
aF-77.047494
asS'Hamlin & 7th St NE'
p469
(lp470
F38.927497
aF-76.997194
asS'Yuma St & Tenley Circle NW'
p471
(lp472
F38.946182
aF-77.08059
asS'3rd St & Riggs Rd NE'
p473
(lp474
F38.957463
aF-77.002239
asS'Fallsgrove Blvd & Fallsgrove Dr'
p475
(lp476
F39.096312
aF-77.192672
asS'14th & Upshur St NW'
p477
(lp478
F38.942016
aF-77.032652
asS'Westpark Dr & Leesburg Pike'
p479
(lp480
F38.92403
aF-77.235955
asS'S Arlington Mill Dr & Campbell Ave'
p481
(lp482
F38.84232
aF-77.089555
asS'Fenton St & Ellsworth Dr '
p483
(lp484
F38.997033
aF-77.025608
asS'1st & H St NW'
p485
(lp486
F38.900358
aF-77.012108
asS'23rd & Eads St'
p487
(lp488
F38.853531
aF-77.053509
asS'3rd St & Pennsylvania Ave SE'
p489
(lp490
F38.887378
aF-77.001955
asS'27th & Crystal Dr'
p491
(lp492
F38.848441
aF-77.051516
asS'13th St & New York Ave NW'
p493
(lp494
F38.900283
aF-77.029822
asS'Wisconsin Ave & Brandywine St NW'
p495
(lp496
F38.949813
aF-77.080217
asS'20th St & Florida Ave NW'
p497
(lp498
F38.9154
aF-77.0446
asS'Arlington Blvd & Fillmore St'
p499
(lp500
F38.873755
aF-77.089233
asS'Lee Hwy & N Cleveland St'
p501
(lp502
F38.894941
aF-77.09169
asS'18th St & Pennsylvania Ave NW'
p503
(lp504
F38.89968
aF-77.041539
asS"L'Enfant Plaza / 7th & C St SW"
p505
(lp506
F38.886266
aF-77.022241
asS'18th & M St NW'
p507
(lp508
F38.904742
aF-77.041606
asS'S Joyce & Army Navy Dr'
p509
(lp510
F38.8637
aF-77.0633
asS'Garland Ave & Walden Rd'
p511
(lp512
F39.000578
aF-77.00149
asS'Piccard & W Gude Dr'
p513
(lp514
F39.102212
aF-77.177091
asS'D St & Maryland Ave NE'
p515
(lp516
F38.894758
aF-76.997114
asS'Westpark & Park Run Dr'
p517
(lp518
F38.928919
aF-77.225394
asS'Anacostia Metro'
p519
(lp520
F38.862669
aF-76.994637
asS'17th St & Massachusetts Ave NW'
p521
(lp522
F38.908142
aF-77.038359
asS'Clarendon Blvd & Pierce St'
p523
(lp524
F38.893438
aF-77.076389
asS'Wilson Blvd & N Quincy St'
p525
(lp526
F38.880012
aF-77.107854
asS'Lynn & 19th St North'
p527
(lp528
F38.897315
aF-77.070993
asS'Lee Hwy & N Adams St'
p529
(lp530
F38.89593
aF-77.089006
asS'Rhode Island Ave Metro'
p531
(lp532
F38.920682
aF-76.995876
asS'Reston Station'
p533
(lp534
F38.948363
aF-77.338119
asS'31st & Woodrow St S'
p535
(lp536
F38.837666
aF-77.09482
asS'22nd St & Constitution Ave NW'
p537
(lp538
F38.892441
aF-77.048947
asS'Army Navy Dr & S Nash St'
p539
(lp540
F38.862467
aF-77.068242
asS'Takoma Park Rec Center'
p541
(lp542
F38.98265
aF-76.988311
asS'14th & D St SE'
p543
(lp544
F38.884
aF-76.9861
asS'Wilson Blvd & N Illinois St '
p545
(lp546
F38.876528
aF-77.12712
asS'M St & New Jersey Ave SE'
p547
(lp548
F38.8763
aF-77.0037
asS'Radford & Osage St'
p549
(lp550
F38.828437
aF-77.086031
asS'River Rd & Landy Ln'
p551
(lp552
F38.964992
aF-77.103381
asS'Glebe Rd & 11th St N'
p553
(lp554
F38.883921
aF-77.116817
asS'Wisconsin Ave & O St NW'
p555
(lp556
F38.90849
aF-77.063586
asS'20th St & Virginia Ave NW'
p557
(lp558
F38.894722
aF-77.045128
asS'Reston YMCA'
p559
(lp560
F38.955314
aF-77.368416
asS'Clarendon Blvd & N Fillmore St'
p561
(lp562
F38.8881
aF-77.09308
asS'Madison & N Henry St'
p563
(lp564
F38.813485
aF-77.049468
asS'Benning Rd & East Capitol St NE / Benning Rd Metro'
p565
(lp566
F38.889935
aF-76.93723
asS'Henry St & Pendleton St'
p567
(lp568
F38.811456
aF-77.050276
asS'McKinley St & Connecticut Ave NW'
p569
(lp570
F38.96497
aF-77.075946
asS'M St & Delaware Ave NE'
p571
(lp572
F38.905707
aF-77.003041
asS'Saint Asaph St & Pendleton  St'
p573
(lp574
F38.810743
aF-77.044664
asS'Bethesda Ave & Arlington Rd'
p575
(lp576
F38.981103
aF-77.097426
asS'Reston Town Center Transit Station'
p577
(lp578
F38.957037
aF-77.359718
asS'21st St N & N Pierce St'
p579
(lp580
F38.898984
aF-77.078317
asS'Lyttonsville Rd & Lyttonsville Pl'
p581
(lp582
F38.999679
aF-77.051168
asS'Columbia Pike & S Courthouse Rd'
p583
(lp584
F38.863833
aF-77.080319
asS'King St Metro North / Cameron St'
p585
(lp586
F38.80704
aF-77.059817
asS'Ward Circle / American University'
p587
(lp588
F38.938736
aF-77.087171
asS'North Capitol St & F St NW'
p589
(lp590
F38.897446
aF-77.009888
asS'21st St & Pennsylvania Ave NW'
p591
(lp592
F38.901539
aF-77.046564
asS'14th & V St NW'
p593
(lp594
F38.9176
aF-77.0321
asS'Oklahoma Ave & D St NE'
p595
(lp596
F38.894474
aF-76.974828
asS'Branch & Pennsylvania Ave SE'
p597
(lp598
F38.8692
aF-76.9599
asS'3rd & H St NW'
p599
(lp600
F38.899408
aF-77.015289
asS'Town Center Pkwy & Bowman Towne Dr'
p601
(lp602
F38.962524
aF-77.361902
asS'New York Ave & Hecht Ave NE'
p603
(lp604
F38.915604
aF-76.983683
asS'Fallsgrove Dr & W Montgomery Ave'
p605
(lp606
F39.099376
aF-77.188014
asS'Saint Asaph & Madison St'
p607
(lp608
F38.812718
aF-77.044097
asS'14th & Rhode Island Ave NW'
p609
(lp610
F38.9086
aF-77.0323
asS'Maryland & Independence Ave SW'
p611
(lp612
F38.887299
aF-77.018939
asS'3rd & H St NE'
p613
(lp614
F38.900412
aF-77.001949
asS'Georgia Ave & Spring St'
p615
(lp616
F38.999388
aF-77.031555
asS'Washington Blvd & Walter Reed Dr '
p617
(lp618
F38.873219
aF-77.082104
asS'Columbia Pike & S Dinwiddie St / Arlington Mill Community Center'
p619
(lp620
F38.856319
aF-77.11153
asS'Wheaton Metro/Georgia Ave & Reedie Dr'
p621
(lp622
F39.038341
aF-77.051023
asS'19th & G St NW'
p623
(lp624
F38.898412
aF-77.043182
asS'Virginia Square Metro / N Monroe St & 9th St N'
p625
(lp626
F38.882788
aF-77.103148
asS'Windham Ln & Amherst Ave'
p627
(lp628
F39.032029
aF-77.04735
asS'Commonwealth Ave & Oak St'
p629
(lp630
F38.812711
aF-77.061715
asS'4th & W St NE'
p631
(lp632
F38.919077
aF-77.000648
asS'Barton St & 10th St N'
p633
(lp634
F38.884961
aF-77.08777
asS'N Rhodes & 16th St N'
p635
(lp636
F38.892164
aF-77.079375
asS'17th & Corcoran St NW'
p637
(lp638
F38.9121
aF-77.0387
asS'N Randolph St & Fairfax Dr'
p639
(lp640
F38.882629
aF-77.109366
asS'Fairfax Dr & Kenmore St'
p641
(lp642
F38.884616
aF-77.10108
asS'Court House Metro / 15th & N Uhle St '
p643
(lp644
F38.890612
aF-77.084801
asS'Fort Totten Metro'
p645
(lp646
F38.952369
aF-77.002721
asS'Columbia Rd & Belmont St NW'
p647
(lp648
F38.920669
aF-77.04368
asS'Cordell & Norfolk Ave'
p649
(lp650
F38.98954
aF-77.098029
asS'Pooks Hill Rd & Linden Ave'
p651
(lp652
F39.014716
aF-77.107143
asS'Rhode Island Ave & V St NE'
p653
(lp654
F38.918155
aF-77.004746
asS'Medical Center Dr & Key West Ave'
p655
(lp656
F39.103091
aF-77.196442
asS'Smithsonian-National Mall / Jefferson Dr & 12th St SW'
p657
(lp658
F38.888767
aF-77.02858
asS'Washington & Independence Ave SW/HHS'
p659
(lp660
F38.886978
aF-77.013769
asS'15th & P St NW'
p661
(lp662
F38.90985
aF-77.034438
asS'36th & Calvert St NW / Glover Park'
p663
(lp664
F38.922581
aF-77.070334
asS'Connecticut Ave & Yuma St NW'
p665
(lp666
F38.947156
aF-77.065115
asS'14th & Girard St NW'
p667
(lp668
F38.925284
aF-77.032375
asS'New Jersey Ave & L St NW'
p669
(lp670
F38.903598
aF-77.01397
asS'Washington Blvd & 7th St N'
p671
(lp672
F38.880834
aF-77.091129
asS"Independence Ave & L'Enfant Plaza SW/DOE"
p673
(lp674
F38.887312
aF-77.025762
asS'11th & O St NW'
p675
(lp676
F38.90843
aF-77.02714
asS'Pennsylvania & Minnesota Ave SE'
p677
(lp678
F38.873057
aF-76.971015
asS'6th & S Ball St'
p679
(lp680
F38.864702
aF-77.048672
asS'14th & L St NW'
p681
(lp682
F38.903658
aF-77.031737
asS'4th St & Madison Dr NW'
p683
(lp684
F38.890493
aF-77.017253
asS'S George Mason Dr & Four Mile Run'
p685
(lp686
F38.852248
aF-77.105022
asS'23rd & Crystal Dr'
p687
(lp688
F38.8533
aF-77.0498
asS'17th & K St NW / Farragut Square'
p689
(lp690
F38.902061
aF-77.038322
asS'Central Library / N Quincy St & 10th St N'
p691
(lp692
F38.88397
aF-77.10783
asS'New York Ave & 15th St NW'
p693
(lp694
F38.8991
aF-77.0337
asS'10th St & Constitution Ave NW'
p695
(lp696
F38.893028
aF-77.026013
asS'Montgomery & East Ln'
p697
(lp698
F38.983525
aF-77.095367
asS'Westpark & Jones Branch Dr'
p699
(lp700
F38.924437
aF-77.217664
asS'Greensboro & International Dr'
p701
(lp702
F38.923083
aF-77.227417
asS'Eckington Pl & Q St NE'
p703
(lp704
F38.910972
aF-77.00495
asS'Eads St & 15th St S'
p705
(lp706
F38.858971
aF-77.05323
asS'S George Mason Dr & 13th St S'
p707
(lp708
F38.854691
aF-77.100555
asS'Adams Mill & Columbia Rd NW'
p709
(lp710
F38.922925
aF-77.042581
asS'1st & K St SE'
p711
(lp712
F38.87861
aF-77.006004
asS'Anacostia Library'
p713
(lp714
F38.865784
aF-76.9784
asS'7th & F St NW/Portrait Gallery'
p715
(lp716
F38.89729557348138
aF-77.02218532562256
asS'Battery Ln & Trolley Trail'
p717
(lp718
F38.992375
aF-77.100104
asS'E Montgomery Ave & Maryland Ave'
p719
(lp720
F39.084125
aF-77.151291
asS'Minnesota Ave Metro/DOES'
p721
(lp722
F38.897063
aF-76.947446
asS'Sligo Ave & Carroll Ln'
p723
(lp724
F38.990874
aF-77.016311
asS'East West Hwy & 16th St'
p725
(lp726
F38.995681
aF-77.038721
asS'S Troy St & 26th St S'
p727
(lp728
F38.847977
aF-77.075104
asS'Metro Center / 12th & G St NW'
p729
(lp730
F38.898364
aF-77.027869
asS'Aurora Hills Community Ctr/18th & Hayes St'
p731
(lp732
F38.857866
aF-77.05949
asS'1st & D St SE'
p733
(lp734
F38.884916
aF-77.005965
asS'Connecticut Ave & Newark St NW / Cleveland Park'
p735
(lp736
F38.934267
aF-77.057979
asS'East West Hwy & Blair Mill Rd'
p737
(lp738
F38.990249
aF-77.02935
asS'Fenton St & Gist Ave'
p739
(lp740
F38.989724
aF-77.023854
asS'14th St & Colorado Ave NW'
p741
(lp742
F38.956432
aF-77.032947
asS'13th & D St NE'
p743
(lp744
F38.894832
aF-76.987633
asS'14th St & New York Ave NW'
p745
(lp746
F38.899632
aF-77.031686
asS'Tysons One Pl & Chain Bridge Rd'
p747
(lp748
F38.919475
aF-77.221179
asS'Bethesda Metro'
p749
(lp750
F38.984691
aF-77.094537
asS'Eastern Market / 7th & North Carolina Ave SE'
p751
(lp752
F38.886952
aF-76.996806
asS'1st & N St  SE'
p753
(lp754
F38.8743
aF-77.0057
asS'Friendship Blvd & Willard Ave'
p755
(lp756
F38.96115
aF-77.088659
asS'Towers Crescent Dr & Tysons One Pl'
p757
(lp758
F38.915246
aF-77.220157
asS'Key West Ave & Siesta Key Way'
p759
(lp760
F39.105295
aF-77.194774
asS'14th & R St NW'
p761
(lp762
F38.912682
aF-77.031681
asS'Park Rd & Holmead Pl NW'
p763
(lp764
F38.9308
aF-77.0315
asS'Georgia Ave and Fairmont St NW'
p765
(lp766
F38.9249
aF-77.0222
asS'10th & U St NW'
p767
(lp768
F38.9172
aF-77.0259
asS'39th & Veazey St NW'
p769
(lp770
F38.943837
aF-77.077078
asS'14th & Harvard St NW'
p771
(lp772
F38.9268
aF-77.0322
asS'North Shore & Cameron Crescent Dr/Crescent Apartments'
p773
(lp774
F38.970046
aF-77.338686
asS'Madison & Fairfax St'
p775
(lp776
F38.812351
aF-77.040691
asS'Lincoln Memorial'
p777
(lp778
F38.888251
aF-77.049426
asS'Takoma Metro'
p779
(lp780
F38.975219
aF-77.016855
asS'Good Hope Rd & MLK Ave SE'
p781
(lp782
F38.867373
aF-76.988039
asS'Duke St & John Carlyle St'
p783
(lp784
F38.804378
aF-77.060866
asS'New Hampshire Ave & T St NW'
p785
(lp786
F38.91554
aF-77.03818
asS'34th St & Wisconsin Ave NW'
p787
(lp788
F38.916442
aF-77.0682
asS'12th St & Pennsylvania Ave SE'
p789
(lp790
F38.882489
aF-76.990121
asS'2nd & G St NE'
p791
(lp792
F38.89967
aF-77.003666
asS'6th St & Indiana Ave NW'
p793
(lp794
F38.894573
aF-77.01994
asS'34th & Water St NW'
p795
(lp796
F38.903662690050474
aF-77.0676684380669
asS'19th & East Capitol St SE'
p797
(lp798
F38.8896
aF-76.9769
asS'Potomac & M St NW'
p799
(lp800
F38.905368
aF-77.065149
asS'Henry Bacon Dr & Lincoln Memorial Circle NW'
p801
(lp802
F38.890544
aF-77.049379
asS'21st & M St NW'
p803
(lp804
F38.90534
aF-77.046774
asS'Crabbs Branch Way & Calhoun Pl'
p805
(lp806
F39.107709
aF-77.152072
asS'1st & Rhode Island Ave NW'
p807
(lp808
F38.915417
aF-77.012289
asS'King Farm Blvd & Piccard Dr'
p809
(lp810
F39.110314
aF-77.182669
asS'Mount Vernon Ave & E Del Ray Ave'
p811
(lp812
F38.82595
aF-77.058541
asS'Wisconsin Ave & Newark St NW'
p813
(lp814
F38.934881
aF-77.072755
asS'14th St & Spring Rd NW'
p815
(lp816
F38.9375
aF-77.0328
asS'Union Market/6th St & Neal Pl NE'
p817
(lp818
F38.908008
aF-76.996985
asS'Calvert & Biltmore St NW'
p819
(lp820
F38.923203
aF-77.047637
asS'11th & Kenyon St NW'
p821
(lp822
F38.929464
aF-77.027822
asS'Lee Hwy & N Monroe St'
p823
(lp824
F38.896456
aF-77.104562
asS'Calvert St & Woodley Pl NW'
p825
(lp826
F38.923583
aF-77.050046
asS'Montgomery Ave & Waverly St '
p827
(lp828
F38.983838
aF-77.09221
asS'Rockville Metro East'
p829
(lp830
F39.085394
aF-77.145803
asS'Ripley & Bonifant St'
p831
(lp832
F38.992679
aF-77.029457
asS'Long Bridge Park/Long Bridge Dr & 6th St S'
p833
(lp834
F38.86646
aF-77.04826
asS'Carroll & Westmoreland Ave'
p835
(lp836
F38.975
aF-77.01121
asS'Broschart & Blackwell Rd'
p837
(lp838
F39.102099
aF-77.200322
asS'Georgia Ave & Piney Branch Rd NW'
p839
(lp840
F38.967505
aF-77.027976
asS'King St & Patrick St'
p841
(lp842
F38.805317
aF-77.049883
asS'Lee Hwy & N Scott St'
p843
(lp844
F38.897612
aF-77.080851
asS'1st & O St NW'
p845
(lp846
F38.908643
aF-77.012365
asS'Columbia Rd & Georgia Ave NW'
p847
(lp848
F38.92812111132096
aF-77.0237946510315
asS'11th & S St NW'
p849
(lp850
F38.913761
aF-77.027025
asS'Clarendon Metro / Wilson Blvd & N Highland St'
p851
(lp852
F38.88786
aF-77.094875
asS'15th & K St NW'
p853
(lp854
F38.902
aF-77.03353
asS'7th & R St NW / Shaw Library'
p855
(lp856
F38.912719
aF-77.022155
asS'Georgetown Harbor / 30th St NW'
p857
(lp858
F38.9022212
aF-77.059219
asS'S Oakland St & Columbia Pike'
p859
(lp860
F38.860789
aF-77.09586
asS'6th & H St NE'
p861
(lp862
F38.899972
aF-76.998347
asS'5th & F St NW'
p863
(lp864
F38.897222
aF-77.019347
asS'Columbia Pike & S Walter Reed Dr'
p865
(lp866
F38.862478
aF-77.086599
asS'12th & U St NW'
p867
(lp868
F38.916787
aF-77.028139
asS'Congress Heights Metro'
p869
(lp870
F38.844711
aF-76.987823
asS'Utah St & 11th St N '
p871
(lp872
F38.883669
aF-77.113905
asS'M St & Pennsylvania Ave NW'
p873
(lp874
F38.905126
aF-77.056887
asS'Arlington Blvd & S George Mason Dr/NFATC'
p875
(lp876
F38.869442
aF-77.104503
asS'Royal & Wilkes St'
p877
(lp878
F38.799267
aF-77.0447
asS'Lee Hwy & N Woodstock St'
p879
(lp880
F38.898301
aF-77.118009
asS'47th & Elm St'
p881
(lp882
F38.982456
aF-77.091991
asS'20th & L St NW'
p883
(lp884
F38.903584
aF-77.044789
asS'Maple & Ritchie Ave'
p885
(lp886
F38.983627
aF-77.006311
asS'Georgia & New Hampshire Ave NW'
p887
(lp888
F38.936043
aF-77.024649
asS'New Hampshire Ave & 24th St NW'
p889
(lp890
F38.901755
aF-77.051084
asS'11th & F St NW'
p891
(lp892
F38.897857
aF-77.026975
asS'8th & H St NW'
p893
(lp894
F38.8997
aF-77.023086
asS'Powhatan St & Bashford Ln'
p895
(lp896
F38.818748
aF-77.047783
asS'15th & Crystal Dr'
p897
(lp898
F38.86017
aF-77.049593
asS'4th & D St NW / Judiciary Square'
p899
(lp900
F38.895344
aF-77.016106
asS'31st & Water St NW'
p901
(lp902
F38.902814
aF-77.061043
asS'Shirlington Transit Center / S Quincy & Randolph St'
p903
(lp904
F38.839912
aF-77.087083
asS'16th & Q St SE / Anacostia HS'
p905
(lp906
F38.870695
aF-76.982359
asS'Traville Gateway Dr & Gudelsky Dr'
p907
(lp908
F39.093783
aF-77.202501
asS'10th & E St NW'
p909
(lp910
F38.895914
aF-77.026064
as.