(dp0
VRosslyn
p1
(lp2
F38.896595
aF-77.07146
asVSilver Spring
p3
(lp4
F38.993841
aF-77.031321
asVFarragut North
p5
(lp6
F38.903192
aF-77.039766
asVSouthern Avenue
p7
(lp8
F38.840974
aF-76.97536
asVSmithsonian
p9
(lp10
F38.888022
aF-77.028232
asVCongress Heights
p11
(lp12
F38.845334
aF-76.98817
asVArchives-Navy Memorial-Penn Quarter
p13
(lp14
F38.893893
aF-77.021902
asVWaterfront
p15
(lp16
F38.876221
aF-77.017491
asVGrosvenor-Strathmore
p17
(lp18
F39.029158
aF-77.10415
asVVirginia Square-GMU
p19
(lp20
F38.88331
aF-77.104267
asVBraddock Road
p21
(lp22
F38.814009
aF-77.053763
asVColumbia Heights
p23
(lp24
F38.928672
aF-77.032775
asVEast Falls Church
p25
(lp26
F38.885841
aF-77.157177
asVCapitol South
p27
(lp28
F38.884968
aF-77.005137
asVNaylor Road
p29
(lp30
F38.851187
aF-76.956565
asVVan Dorn Street
p31
(lp32
F38.799193
aF-77.129407
asVCleveland Park
p33
(lp34
F38.934703
aF-77.058226
asVCourt House
p35
(lp36
F38.891499
aF-77.08391
asVArlington Cemetery
p37
(lp38
F38.884574
aF-77.063108
asVMt Vernon Sq 7th St-Convention Center
p39
(lp40
F38.905604
aF-77.022256
asVPentagon
p41
(lp42
F38.869349
aF-77.054013
asVBranch Ave
p43
(lp44
F38.826995
aF-76.912134
asVPotomac Ave
p45
(lp46
F38.880841
aF-76.985721
asVUnion Station
p47
(lp48
F38.897723
aF-77.006745
asVCollege Park-U of Md
p49
(lp50
F38.978523
aF-76.928432
asVForest Glen
p51
(lp52
F39.015413
aF-77.042953
asVAnacostia
p53
(lp54
F38.862072
aF-76.995648
asVVienna/Fairfax-GMU
p55
(lp56
F38.877693
aF-77.271562
asVLargo Town Center
p57
(lp58
F38.9008
aF-76.8449
asVU Street/African-Amer Civil War Memorial/Cardozo
p59
(lp60
F38.916489
aF-77.028938
asVGlenmont
p61
(lp62
F39.061713
aF-77.05341
asVFranconia-Springfield
p63
(lp64
F38.766129
aF-77.168797
asVL'Enfant Plaza
p65
(lp66
F38.884775
aF-77.021964
asVNavy Yard-Ballpark
p67
(lp68
F38.876588
aF-77.005086
asVClarendon
p69
(lp70
F38.886373
aF-77.096963
asVGreenbelt
p71
(lp72
F39.011036
aF-76.911362
asVNoMa-Gallaudet U
p73
(lp74
F38.907407
aF-77.002961
asVMcLean
p75
(lp76
F38.924478
aF-77.210167
asVWoodley Park-Zoo/Adams Morgan
p77
(lp78
F38.924999
aF-77.052648
asVShaw-Howard U
p79
(lp80
F38.912919
aF-77.022194
asVFederal Triangle
p81
(lp82
F38.893757
aF-77.028218
asVTysons Corner
p83
(lp84
F38.920056
aF-77.223314
asVFederal Center SW
p85
(lp86
F38.884958
aF-77.01586
asVNew Carrollton
p87
(lp88
F38.947674
aF-76.872144
asVHuntington
p89
(lp90
F38.793841
aF-77.075301
asVKing St-Old Town
p91
(lp92
F38.806474
aF-77.061115
asVCrystal City
p93
(lp94
F38.85779
aF-77.050589
asVWhite Flint
p95
(lp96
F39.048043
aF-77.113131
asVTakoma
p97
(lp98
F38.975532
aF-77.017834
asVWest Hyattsville
p99
(lp100
F38.954931
aF-76.969881
asVBethesda
p101
(lp102
F38.984282
aF-77.094431
asVShady Grove
p103
(lp104
F39.119819
aF-77.164921
asVPrince George's Plaza
p105
(lp106
F38.965276
aF-76.956182
asVDunn Loring-Merrifield
p107
(lp108
F38.883015
aF-77.228939
asVJudiciary Square
p109
(lp110
F38.896084
aF-77.016643
asVStadium-Armory
p111
(lp112
F38.88594
aF-76.977485
asVGallery Pl-Chinatown
p113
(lp114
F38.89834
aF-77.021851
asVBrookland-CUA
p115
(lp116
F38.933234
aF-76.994544
asVEastern Market
p117
(lp118
F38.884124
aF-76.995334
asVVan Ness-UDC
p119
(lp120
F38.94362
aF-77.063511
asVCapitol Heights
p121
(lp122
F38.889757
aF-76.913382
asVRockville
p123
(lp124
F39.084215
aF-77.146424
asVGreensboro
p125
(lp126
F38.919749
aF-77.235192
asVRhode Island Ave-Brentwood
p127
(lp128
F38.920741
aF-76.995984
asVFort Totten
p129
(lp130
F38.951777
aF-77.002174
asVWest Falls Church-VT/UVA
p131
(lp132
F38.90067
aF-77.189394
asVFriendship Heights
p133
(lp134
F38.960744
aF-77.085969
asVSuitland
p135
(lp136
F38.843891
aF-76.932022
asVEisenhower Avenue
p137
(lp138
F38.800313
aF-77.071173
asVFoggy Bottom-GWU
p139
(lp140
F38.900599
aF-77.050273
asVBallston-MU
p141
(lp142
F38.882071
aF-77.111845
asVPentagon City
p143
(lp144
F38.863045
aF-77.059507
asVMetro Center
p145
(lp146
F38.898303
aF-77.028099
asVMorgan Boulevard
p147
(lp148
F38.8913
aF-76.8682
asVWheaton
p149
(lp150
F39.038558
aF-77.051098
asVMinnesota Ave
p151
(lp152
F38.898284
aF-76.948042
asVAddison Road-Seat Pleasant
p153
(lp154
F38.886713
aF-76.893592
asVTenleytown-AU
p155
(lp156
F38.947808
aF-77.079615
asVDeanwood
p157
(lp158
F38.907734
aF-76.936177
asVMedical Center
p159
(lp160
F38.999947
aF-77.097253
asVGeorgia Ave-Petworth
p161
(lp162
F38.936077
aF-77.024728
asVDupont Circle
p163
(lp164
F38.909499
aF-77.04362
asVMcPherson Square
p165
(lp166
F38.901316
aF-77.033652
asVLandover
p167
(lp168
F38.934411
aF-76.890988
asVSpring Hill
p169
(lp170
F38.92902
aF-77.24178
asVRonald Reagan Washington National Airport
p171
(lp172
F38.852985
aF-77.043805
asVBenning Road
p173
(lp174
F38.890488
aF-76.938291
asVFarragut West
p175
(lp176
F38.901311
aF-77.03981
asVTwinbrook
p177
(lp178
F39.062359
aF-77.121113
asVWiehle-Reston East
p179
(lp180
F38.947753
aF-77.340179
asVCheverly
p181
(lp182
F38.91652
aF-76.915427
as.